target datalayout = "e-m:e-p270:32:32-p271:32:32-p272:64:64-i64:64-i128:128-f80:128-n8:16:32:64-S128"
target triple = "x86_64-pc-linux-gnu"

%struct.ident_t = type { i32, i32, i32, i32, ptr }
%"class.ncnn::BatchNorm" = type { %"class.ncnn::Layer", i32, float, %"class.ncnn::Mat", %"class.ncnn::Mat", %"class.ncnn::Mat", %"class.ncnn::Mat", %"class.ncnn::Mat", %"class.ncnn::Mat" }
%"class.ncnn::Layer" = type { ptr, i8, i8, i8, i8, i8, i8, i8, i8, i8, i8, i8, i8, i8, i8, i8, i8, i8, i8, i8, i8, i32, ptr, i32, %"class.std::__cxx11::basic_string", %"class.std::__cxx11::basic_string", %"class.std::vector", %"class.std::vector", %"class.std::vector.3", %"class.std::vector.3" }
%"class.std::__cxx11::basic_string" = type { %"struct.std::__cxx11::basic_string<char>::_Alloc_hider", i64, %union.anon }
%"struct.std::__cxx11::basic_string<char>::_Alloc_hider" = type { ptr }
%union.anon = type { i64, [8 x i8] }
%"class.std::vector" = type { %"struct.std::_Vector_base" }
%"struct.std::_Vector_base" = type { %"struct.std::_Vector_base<int, std::allocator<int>>::_Vector_impl" }
%"struct.std::_Vector_base<int, std::allocator<int>>::_Vector_impl" = type { %"struct.std::_Vector_base<int, std::allocator<int>>::_Vector_impl_data" }
%"struct.std::_Vector_base<int, std::allocator<int>>::_Vector_impl_data" = type { ptr, ptr, ptr }
%"class.std::vector.3" = type { %"struct.std::_Vector_base.4" }
%"struct.std::_Vector_base.4" = type { %"struct.std::_Vector_base<ncnn::Mat, std::allocator<ncnn::Mat>>::_Vector_impl" }
%"struct.std::_Vector_base<ncnn::Mat, std::allocator<ncnn::Mat>>::_Vector_impl" = type { %"struct.std::_Vector_base<ncnn::Mat, std::allocator<ncnn::Mat>>::_Vector_impl_data" }
%"struct.std::_Vector_base<ncnn::Mat, std::allocator<ncnn::Mat>>::_Vector_impl_data" = type { ptr, ptr, ptr }
%"class.ncnn::Mat" = type { ptr, ptr, i64, i32, ptr, i32, i32, i32, i32, i32, i64 }

@1 = private unnamed_addr constant %struct.ident_t { i32 0, i32 514, i32 0, i32 22, ptr @0 }, align 8

; Function Attrs: noinline noreturn nounwind uwtable
define linkonce_odr hidden void @__clang_call_terminate(ptr noundef %0) #6 comdat {
  %2 = call ptr @__cxa_begin_catch(ptr %0) #10
  call void @_ZSt9terminatev() #13
  unreachable
}

; Function Attrs: alwaysinline mustprogress nounwind uwtable
define linkonce_odr hidden noundef nonnull align 4 dereferenceable(4) ptr @_ZNK4ncnn3MatixEm(ptr noundef nonnull align 8 dereferenceable(72) %0, i64 noundef %1) #3 comdat align 2 {
  %3 = alloca ptr, align 8
  %4 = alloca i64, align 8
  store ptr %0, ptr %3, align 8, !tbaa !42
  store i64 %1, ptr %4, align 8, !tbaa !63
  %5 = load ptr, ptr %3, align 8
  %6 = getelementptr inbounds nuw %"class.ncnn::Mat", ptr %5, i32 0, i32 0
  %7 = load ptr, ptr %6, align 8, !tbaa !56
  %8 = load i64, ptr %4, align 8, !tbaa !63
  %9 = getelementptr inbounds nuw float, ptr %7, i64 %8
  ret ptr %9
}

; Function Attrs: alwaysinline mustprogress nounwind uwtable
define linkonce_odr hidden noundef ptr @_ZN4ncnn3Mat3rowEi(ptr noundef nonnull align 8 dereferenceable(72) %0, i32 noundef %1) #3 comdat align 2 {
  %3 = alloca ptr, align 8
  %4 = alloca i32, align 4
  store ptr %0, ptr %3, align 8, !tbaa !42
  store i32 %1, ptr %4, align 4, !tbaa !38
  %5 = load ptr, ptr %3, align 8
  %6 = getelementptr inbounds nuw %"class.ncnn::Mat", ptr %5, i32 0, i32 0
  %7 = load ptr, ptr %6, align 8, !tbaa !56
  %8 = getelementptr inbounds nuw %"class.ncnn::Mat", ptr %5, i32 0, i32 6
  %9 = load i32, ptr %8, align 4, !tbaa !46
  %10 = sext i32 %9 to i64
  %11 = load i32, ptr %4, align 4, !tbaa !38
  %12 = sext i32 %11 to i64
  %13 = mul i64 %10, %12
  %14 = getelementptr inbounds nuw %"class.ncnn::Mat", ptr %5, i32 0, i32 2
  %15 = load i64, ptr %14, align 8, !tbaa !58
  %16 = mul i64 %13, %15
  %17 = getelementptr inbounds nuw i8, ptr %7, i64 %16
  ret ptr %17
}

; Function Attrs: alwaysinline norecurse nounwind uwtable
define internal void @_ZNK4ncnn9BatchNorm15forward_inplaceERNS_3MatERKNS_6OptionE.omp_outlined.1(ptr noalias noundef %0, ptr noalias noundef %1, ptr noundef nonnull align 4 dereferenceable(4) %2, ptr noundef nonnull align 8 dereferenceable(72) %3, ptr noundef %4, ptr noundef nonnull align 4 dereferenceable(4) %5) #9 personality ptr @__gxx_personality_v0 {
  %7 = alloca ptr, align 8
  %8 = alloca ptr, align 8
  %9 = alloca ptr, align 8
  %10 = alloca ptr, align 8
  %11 = alloca ptr, align 8
  %12 = alloca ptr, align 8
  %13 = alloca ptr, align 8
  %14 = alloca i32, align 4
  %15 = alloca i32, align 4
  %16 = alloca i32, align 4
  %17 = alloca i32, align 4
  %18 = alloca i32, align 4
  %19 = alloca i32, align 4
  %20 = alloca i32, align 4
  %21 = alloca i32, align 4
  %22 = alloca i32, align 4
  %23 = alloca ptr, align 8
  %24 = alloca float, align 4
  %25 = alloca float, align 4
  %26 = alloca i32, align 4
  store ptr %0, ptr %7, align 8, !tbaa !64
  store ptr %1, ptr %8, align 8, !tbaa !64
  store ptr %2, ptr %9, align 8, !tbaa !64
  store ptr %3, ptr %10, align 8, !tbaa !42
  store ptr %4, ptr %11, align 8, !tbaa !4
  store ptr %5, ptr %12, align 8, !tbaa !64
  %27 = load ptr, ptr %9, align 8, !tbaa !64
  %28 = load ptr, ptr %10, align 8, !tbaa !42
  %29 = load ptr, ptr %11, align 8, !tbaa !4
  %30 = load ptr, ptr %12, align 8, !tbaa !64
  store ptr %28, ptr %13, align 8
  call void @llvm.lifetime.start.p0(i64 4, ptr %14) #10
  call void @llvm.lifetime.start.p0(i64 4, ptr %15) #10
  %31 = load i32, ptr %27, align 4, !tbaa !38
  store i32 %31, ptr %15, align 4, !tbaa !38
  call void @llvm.lifetime.start.p0(i64 4, ptr %16) #10
  %32 = load i32, ptr %15, align 4, !tbaa !38
  %33 = sub nsw i32 %32, 0
  %34 = sdiv i32 %33, 1
  %35 = sub nsw i32 %34, 1
  store i32 %35, ptr %16, align 4, !tbaa !38
  call void @llvm.lifetime.start.p0(i64 4, ptr %17) #10
  store i32 0, ptr %17, align 4, !tbaa !38
  call void @llvm.lifetime.end.p0(i64 4, ptr %17) #10
  %36 = load i32, ptr %15, align 4, !tbaa !38
  %37 = icmp slt i32 0, %36
  br i1 %37, label %38, label %108

38:                                               ; preds = %6
  call void @llvm.lifetime.start.p0(i64 4, ptr %18) #10
  store i32 0, ptr %18, align 4, !tbaa !38
  call void @llvm.lifetime.start.p0(i64 4, ptr %19) #10
  %39 = load i32, ptr %16, align 4, !tbaa !38
  store i32 %39, ptr %19, align 4, !tbaa !38
  call void @llvm.lifetime.start.p0(i64 4, ptr %20) #10
  store i32 1, ptr %20, align 4, !tbaa !38
  call void @llvm.lifetime.start.p0(i64 4, ptr %21) #10
  store i32 0, ptr %21, align 4, !tbaa !38
  call void @llvm.lifetime.start.p0(i64 4, ptr %22) #10
  %40 = load ptr, ptr %7, align 8
  %41 = load i32, ptr %40, align 4, !tbaa !38
  call void @__kmpc_for_static_init_4(ptr @1, i32 %41, i32 34, ptr %21, ptr %18, ptr %19, ptr %20, i32 1, i32 1)
  %42 = load i32, ptr %19, align 4, !tbaa !38
  %43 = load i32, ptr %16, align 4, !tbaa !38
  %44 = icmp sgt i32 %42, %43
  br i1 %44, label %45, label %47

45:                                               ; preds = %38
  %46 = load i32, ptr %16, align 4, !tbaa !38
  br label %49

47:                                               ; preds = %38
  %48 = load i32, ptr %19, align 4, !tbaa !38
  br label %49

49:                                               ; preds = %47, %45
  %50 = phi i32 [ %46, %45 ], [ %48, %47 ]
  store i32 %50, ptr %19, align 4, !tbaa !38
  %51 = load i32, ptr %18, align 4, !tbaa !38
  store i32 %51, ptr %14, align 4, !tbaa !38
  br label %52

52:                                               ; preds = %101, %49
  %53 = load i32, ptr %14, align 4, !tbaa !38
  %54 = load i32, ptr %19, align 4, !tbaa !38
  %55 = icmp sle i32 %53, %54
  br i1 %55, label %57, label %56

56:                                               ; preds = %52
  br label %104

57:                                               ; preds = %52
  %58 = load i32, ptr %14, align 4, !tbaa !38
  %59 = mul nsw i32 %58, 1
  %60 = add nsw i32 0, %59
  store i32 %60, ptr %22, align 4, !tbaa !38
  call void @llvm.lifetime.start.p0(i64 8, ptr %23) #10
  %61 = load ptr, ptr %13, align 8, !tbaa !42
  %62 = load i32, ptr %22, align 4, !tbaa !38
  %63 = invoke noundef ptr @_ZN4ncnn3Mat3rowEi(ptr noundef nonnull align 8 dereferenceable(72) %61, i32 noundef %62)
          to label %64 unwind label %109

64:                                               ; preds = %57
  store ptr %63, ptr %23, align 8, !tbaa !47
  call void @llvm.lifetime.start.p0(i64 4, ptr %24) #10
  %65 = getelementptr inbounds nuw %"class.ncnn::BatchNorm", ptr %29, i32 0, i32 7
  %66 = load i32, ptr %22, align 4, !tbaa !38
  %67 = sext i32 %66 to i64
  %68 = invoke noundef nonnull align 4 dereferenceable(4) ptr @_ZNK4ncnn3MatixEm(ptr noundef nonnull align 8 dereferenceable(72) %65, i64 noundef %67)
          to label %69 unwind label %109

69:                                               ; preds = %64
  %70 = load float, ptr %68, align 4, !tbaa !39
  store float %70, ptr %24, align 4, !tbaa !39
  call void @llvm.lifetime.start.p0(i64 4, ptr %25) #10
  %71 = getelementptr inbounds nuw %"class.ncnn::BatchNorm", ptr %29, i32 0, i32 8
  %72 = load i32, ptr %22, align 4, !tbaa !38
  %73 = sext i32 %72 to i64
  %74 = invoke noundef nonnull align 4 dereferenceable(4) ptr @_ZNK4ncnn3MatixEm(ptr noundef nonnull align 8 dereferenceable(72) %71, i64 noundef %73)
          to label %75 unwind label %109

75:                                               ; preds = %69
  %76 = load float, ptr %74, align 4, !tbaa !39
  store float %76, ptr %25, align 4, !tbaa !39
  call void @llvm.lifetime.start.p0(i64 4, ptr %26) #10
  store i32 0, ptr %26, align 4, !tbaa !38
  br label %77

77:                                               ; preds = %96, %75
  %78 = load i32, ptr %26, align 4, !tbaa !38
  %79 = load i32, ptr %30, align 4, !tbaa !38
  %80 = icmp slt i32 %78, %79
  br i1 %80, label %82, label %81

81:                                               ; preds = %77
  call void @llvm.lifetime.end.p0(i64 4, ptr %26) #10
  br label %99

82:                                               ; preds = %77
  %83 = load float, ptr %25, align 4, !tbaa !39
  %84 = load ptr, ptr %23, align 8, !tbaa !47
  %85 = load i32, ptr %26, align 4, !tbaa !38
  %86 = sext i32 %85 to i64
  %87 = getelementptr inbounds float, ptr %84, i64 %86
  %88 = load float, ptr %87, align 4, !tbaa !39
  %89 = fmul fast float %83, %88
  %90 = load float, ptr %24, align 4, !tbaa !39
  %91 = fadd fast float %89, %90
  %92 = load ptr, ptr %23, align 8, !tbaa !47
  %93 = load i32, ptr %26, align 4, !tbaa !38
  %94 = sext i32 %93 to i64
  %95 = getelementptr inbounds float, ptr %92, i64 %94
  store float %91, ptr %95, align 4, !tbaa !39
  br label %96

96:                                               ; preds = %82
  %97 = load i32, ptr %26, align 4, !tbaa !38
  %98 = add nsw i32 %97, 1
  store i32 %98, ptr %26, align 4, !tbaa !38
  br label %77, !llvm.loop !70

99:                                               ; preds = %81
  call void @llvm.lifetime.end.p0(i64 4, ptr %25) #10
  call void @llvm.lifetime.end.p0(i64 4, ptr %24) #10
  call void @llvm.lifetime.end.p0(i64 8, ptr %23) #10
  br label %100

100:                                              ; preds = %99
  br label %101

101:                                              ; preds = %100
  %102 = load i32, ptr %14, align 4, !tbaa !38
  %103 = add nsw i32 %102, 1
  store i32 %103, ptr %14, align 4, !tbaa !38
  br label %52

104:                                              ; preds = %56
  br label %105

105:                                              ; preds = %104
  %106 = load ptr, ptr %7, align 8
  %107 = load i32, ptr %106, align 4, !tbaa !38
  call void @__kmpc_for_static_fini(ptr @1, i32 %107)
  call void @llvm.lifetime.end.p0(i64 4, ptr %22) #10
  call void @llvm.lifetime.end.p0(i64 4, ptr %21) #10
  call void @llvm.lifetime.end.p0(i64 4, ptr %20) #10
  call void @llvm.lifetime.end.p0(i64 4, ptr %19) #10
  call void @llvm.lifetime.end.p0(i64 4, ptr %18) #10
  br label %108

108:                                              ; preds = %105, %6
  call void @llvm.lifetime.end.p0(i64 4, ptr %16) #10
  call void @llvm.lifetime.end.p0(i64 4, ptr %15) #10
  call void @llvm.lifetime.end.p0(i64 4, ptr %14) #10
  ret void

109:                                              ; preds = %69, %64, %57
  %110 = landingpad { ptr, i32 }
          catch ptr null
  %111 = extractvalue { ptr, i32 } %110, 0
  call void @__clang_call_terminate(ptr %111) #13
  unreachable
}