; Function Attrs: alwaysinline norecurse nounwind uwtable
define internal void @_ZNK4ncnn9BatchNorm15forward_inplaceERNS_3MatERKNS_6OptionE.omp_outlined.1(ptr noalias noundef readonly captures(none) %0, ptr noalias readnone captures(none) %1, ptr noundef nonnull readonly align 4 captures(none) dereferenceable(4) %2, ptr noundef nonnull readonly align 8 captures(none) dereferenceable(72) %3, ptr noundef readonly captures(none) %4, ptr noundef nonnull readonly align 4 captures(none) dereferenceable(4) %5) #10 personality ptr @__gxx_personality_v0 {
  %7 = alloca i32, align 4
  %8 = alloca i32, align 4
  %9 = alloca i32, align 4
  %10 = alloca i32, align 4
  %11 = load i32, ptr %2, align 4, !tbaa !46
  %12 = icmp sgt i32 %11, 0
  br i1 %12, label %13, label %43

13:                                               ; preds = %6
  %14 = add nsw i32 %11, -1
  call void @llvm.lifetime.start.p0(i64 4, ptr nonnull %7) #11
  store i32 0, ptr %7, align 4, !tbaa !46
  call void @llvm.lifetime.start.p0(i64 4, ptr nonnull %8) #11
  store i32 %14, ptr %8, align 4, !tbaa !46
  call void @llvm.lifetime.start.p0(i64 4, ptr nonnull %9) #11
  store i32 1, ptr %9, align 4, !tbaa !46
  call void @llvm.lifetime.start.p0(i64 4, ptr nonnull %10) #11
  store i32 0, ptr %10, align 4, !tbaa !46
  %15 = load i32, ptr %0, align 4, !tbaa !46
  call void @__kmpc_for_static_init_4(ptr nonnull @1, i32 %15, i32 34, ptr nonnull %10, ptr nonnull %7, ptr nonnull %8, ptr nonnull %9, i32 1, i32 1)
  %16 = load i32, ptr %8, align 4, !tbaa !46
  %17 = call i32 @llvm.smin.i32(i32 %16, i32 %14)
  store i32 %17, ptr %8, align 4, !tbaa !46
  %18 = load i32, ptr %7, align 4, !tbaa !46
  %.not27 = icmp sgt i32 %18, %17
  br i1 %.not27, label %._crit_edge31, label %.lr.ph30

.lr.ph30:                                         ; preds = %13
  %19 = load ptr, ptr %3, align 8, !tbaa !16
  %20 = getelementptr inbounds nuw i8, ptr %3, i64 44
  %21 = load i32, ptr %20, align 4, !tbaa !39
  %22 = sext i32 %21 to i64
  %23 = getelementptr inbounds nuw i8, ptr %3, i64 16
  %24 = load i64, ptr %23, align 8, !tbaa !36
  %factor.op.mul = mul i64 %24, %22
  %25 = getelementptr inbounds nuw i8, ptr %4, i64 504
  %26 = load ptr, ptr %25, align 8, !tbaa !16
  %27 = getelementptr inbounds nuw i8, ptr %4, i64 576
  %28 = load ptr, ptr %27, align 8, !tbaa !16
  %29 = load i32, ptr %5, align 4, !tbaa !46
  %30 = icmp sgt i32 %29, 0
  br i1 %30, label %.lr.ph.us.preheader, label %._crit_edge31

.lr.ph.us.preheader:                              ; preds = %.lr.ph30
  %31 = sext i32 %18 to i64
  %32 = add nsw i32 %17, 1
  %wide.trip.count = zext nneg i32 %29 to i64
  br label %.lr.ph.us

.lr.ph.us:                                        ; preds = %.lr.ph.us.preheader, %._crit_edge.us
  %indvars.iv34 = phi i64 [ %31, %.lr.ph.us.preheader ], [ %indvars.iv.next35, %._crit_edge.us ]
  %.reass.us = mul i64 %factor.op.mul, %indvars.iv34
  %33 = getelementptr inbounds nuw i8, ptr %19, i64 %.reass.us
  %34 = getelementptr inbounds nuw float, ptr %26, i64 %indvars.iv34
  %35 = load float, ptr %34, align 4, !tbaa !43
  %36 = getelementptr inbounds nuw float, ptr %28, i64 %indvars.iv34
  %37 = load float, ptr %36, align 4, !tbaa !43
  br label %38

38:                                               ; preds = %.lr.ph.us, %38
  %indvars.iv = phi i64 [ 0, %.lr.ph.us ], [ %indvars.iv.next, %38 ]
  %39 = getelementptr inbounds nuw float, ptr %33, i64 %indvars.iv
  %40 = load float, ptr %39, align 4, !tbaa !43
  %41 = fmul fast float %40, %37
  %42 = fadd fast float %41, %35
  store float %42, ptr %39, align 4, !tbaa !43
  %indvars.iv.next = add nuw nsw i64 %indvars.iv, 1
  %exitcond.not = icmp eq i64 %indvars.iv.next, %wide.trip.count
  br i1 %exitcond.not, label %._crit_edge.us, label %38, !llvm.loop !55

._crit_edge.us:                                   ; preds = %38
  %indvars.iv.next35 = add nsw i64 %indvars.iv34, 1
  %lftr.wideiv = trunc i64 %indvars.iv.next35 to i32
  %exitcond37.not = icmp eq i32 %32, %lftr.wideiv
  br i1 %exitcond37.not, label %._crit_edge31, label %.lr.ph.us

._crit_edge31:                                    ; preds = %._crit_edge.us, %.lr.ph30, %13
  call void @__kmpc_for_static_fini(ptr nonnull @1, i32 %15)
  call void @llvm.lifetime.end.p0(i64 4, ptr nonnull %10) #11
  call void @llvm.lifetime.end.p0(i64 4, ptr nonnull %9) #11
  call void @llvm.lifetime.end.p0(i64 4, ptr nonnull %8) #11
  call void @llvm.lifetime.end.p0(i64 4, ptr nonnull %7) #11
  br label %43

43:                                               ; preds = %._crit_edge31, %6
  ret void
}